; Function Attrs: nounwind uwtable
define dso_local void @pgstat_bgwriter_snapshot_cb() local_unnamed_addr #0 {
  %1 = load ptr, ptr @pgStatLocal, align 8
  %2 = getelementptr inbounds nuw i8, ptr %1, i64 352
  %3 = getelementptr inbounds nuw i8, ptr %1, i64 344
  br label %pgstat_end_changecount_read.exit.i

pgstat_end_changecount_read.exit.i:               ; preds = %pgstat_end_changecount_read.exit.i.backedge, %0
  %4 = load i32, ptr %3, align 4
  %5 = load volatile i32, ptr @InterruptPending, align 4
  %.not.i.i = icmp eq i32 %5, 0
  br i1 %.not.i.i, label %pgstat_begin_changecount_read.exit.i, label %6, !prof !8

6:                                                ; preds = %pgstat_end_changecount_read.exit.i
  tail call void @ProcessInterrupts() #4
  br label %pgstat_begin_changecount_read.exit.i

pgstat_begin_changecount_read.exit.i:             ; preds = %6, %pgstat_end_changecount_read.exit.i
  tail call void asm sideeffect "", "~{memory},~{dirflag},~{fpsr},~{flags}"() #4, !srcloc !9
  tail call void @llvm.memcpy.p0.p0.i64(ptr noundef nonnull align 8 dereferenceable(32) getelementptr inbounds nuw (i8, ptr @pgStatLocal, i64 192), ptr noundef nonnull readonly align 1 dereferenceable(32) %2, i64 32, i1 false)
  tail call void asm sideeffect "", "~{memory},~{dirflag},~{fpsr},~{flags}"() #4, !srcloc !10
  %7 = and i32 %4, 1
  %.not.i5.i = icmp eq i32 %7, 0
  br i1 %.not.i5.i, label %8, label %pgstat_end_changecount_read.exit.i.backedge

8:                                                ; preds = %pgstat_begin_changecount_read.exit.i
  %9 = load i32, ptr %3, align 4
  %10 = icmp eq i32 %4, %9
  br i1 %10, label %pgstat_copy_changecounted_stats.exit, label %pgstat_end_changecount_read.exit.i.backedge

pgstat_end_changecount_read.exit.i.backedge:      ; preds = %8, %pgstat_begin_changecount_read.exit.i
  br label %pgstat_end_changecount_read.exit.i, !llvm.loop !11

pgstat_copy_changecounted_stats.exit:             ; preds = %8
  %11 = getelementptr inbounds nuw i8, ptr %1, i64 384
  %12 = getelementptr inbounds nuw i8, ptr %1, i64 328
  %13 = tail call zeroext i1 @LWLockAcquire(ptr noundef nonnull %12, i32 noundef 1) #4
  %.sroa.0.0.copyload = load i64, ptr %11, align 8
  %.sroa.4.0..sroa_idx = getelementptr inbounds nuw i8, ptr %1, i64 392
  %.sroa.4.0.copyload = load i64, ptr %.sroa.4.0..sroa_idx, align 8
  %.sroa.5.0..sroa_idx = getelementptr inbounds nuw i8, ptr %1, i64 400
  %.sroa.5.0.copyload = load i64, ptr %.sroa.5.0..sroa_idx, align 8
  tail call void @LWLockRelease(ptr noundef nonnull %12) #4
  %14 = load i64, ptr getelementptr inbounds nuw (i8, ptr @pgStatLocal, i64 192), align 8
  %15 = sub i64 %14, %.sroa.0.0.copyload
  store i64 %15, ptr getelementptr inbounds nuw (i8, ptr @pgStatLocal, i64 192), align 8
  %16 = load i64, ptr getelementptr inbounds nuw (i8, ptr @pgStatLocal, i64 200), align 8
  %17 = sub i64 %16, %.sroa.4.0.copyload
  store i64 %17, ptr getelementptr inbounds nuw (i8, ptr @pgStatLocal, i64 200), align 8
  %18 = load i64, ptr getelementptr inbounds nuw (i8, ptr @pgStatLocal, i64 208), align 8
  %19 = sub i64 %18, %.sroa.5.0.copyload
  store i64 %19, ptr getelementptr inbounds nuw (i8, ptr @pgStatLocal, i64 208), align 8
  ret void
}